; Function Attrs: mustprogress uwtable
define hidden noundef ptr @_ZN7datalog12dl_decl_util5mk_ltEP4exprS2_(ptr noundef nonnull align 8 captures(none) dereferenceable(28) %0, ptr noundef %1, ptr noundef %2) local_unnamed_addr #3 align 2 {
  %4 = alloca %class.symbol, align 8
  %5 = alloca [2 x ptr], align 16
  call void @llvm.lifetime.start.p0(i64 16, ptr nonnull %5) #22
  store ptr %1, ptr %5, align 16, !tbaa !74
  %6 = getelementptr inbounds nuw i8, ptr %5, i64 8
  store ptr %2, ptr %6, align 8, !tbaa !74
  %7 = load ptr, ptr %0, align 8, !tbaa !163
  %8 = getelementptr inbounds nuw i8, ptr %0, i64 24
  %9 = load i32, ptr %8, align 8, !tbaa !156
  %10 = icmp eq i32 %9, -1
  br i1 %10, label %11, label %_ZNK7datalog12dl_decl_util13get_family_idEv.exit

11:                                               ; preds = %3
  call void @llvm.lifetime.start.p0(i64 8, ptr nonnull %4) #22
  call void @_ZN6symbolC1EPKc(ptr noundef nonnull align 8 dereferenceable(8) %4, ptr noundef nonnull @.str.58)
  %12 = getelementptr inbounds nuw i8, ptr %7, i64 560
  %13 = call noundef i32 @_ZN14family_manager12mk_family_idERK6symbol(ptr noundef nonnull align 8 dereferenceable(56) %12, ptr noundef nonnull align 8 dereferenceable(8) %4)
  store i32 %13, ptr %8, align 8, !tbaa !156
  call void @llvm.lifetime.end.p0(i64 8, ptr nonnull %4) #22
  br label %_ZNK7datalog12dl_decl_util13get_family_idEv.exit

_ZNK7datalog12dl_decl_util13get_family_idEv.exit: ; preds = %3, %11
  %14 = phi i32 [ %13, %11 ], [ %9, %3 ]
  %15 = call noundef ptr @_ZN11ast_manager6mk_appEiijPK9parameterjPKP4exprP4sort(ptr noundef nonnull align 8 dereferenceable(976) %7, i32 noundef %14, i32 noundef 14, i32 noundef 0, ptr noundef null, i32 noundef 2, ptr noundef nonnull %5, ptr noundef null)
  call void @llvm.lifetime.end.p0(i64 16, ptr nonnull %5) #22
  ret ptr %15
}